; Function Attrs: mustprogress uwtable
define hidden void @_ZN3smt17theory_array_bapa16internalize_termEP3app(ptr nocapture noundef nonnull readonly align 8 dereferenceable(8) %this, ptr noundef %term) local_unnamed_addr #3 align 2 {
entry:
  %0 = load ptr, ptr %this, align 8
  %m_decl.i.i.i = getelementptr inbounds i8, ptr %term, i64 16
  %1 = load ptr, ptr %m_decl.i.i.i, align 8
  %m_info.i.i.i.i = getelementptr inbounds i8, ptr %1, i64 24
  %2 = load ptr, ptr %m_info.i.i.i.i, align 8
  %tobool.not.i.i.i.i = icmp eq ptr %2, null
  br i1 %tobool.not.i.i.i.i, label %_ZN3smt17theory_array_bapa3imp16internalize_termEP3app.exit, label %_ZNK3smt17theory_array_base15is_set_has_sizeEPK3app.exit.i

_ZNK3smt17theory_array_base15is_set_has_sizeEPK3app.exit.i: ; preds = %entry
  %th.i = getelementptr inbounds i8, ptr %0, i64 8
  %3 = load ptr, ptr %th.i, align 8
  %m_id.i.i.i = getelementptr inbounds i8, ptr %3, i64 8
  %4 = load i32, ptr %m_id.i.i.i, align 8
  %5 = load i32, ptr %2, align 8
  %cmp.i.i.i.i.i = icmp eq i32 %5, %4
  %m_kind.i.i.i.i.i = getelementptr inbounds i8, ptr %2, i64 4
  %6 = load i32, ptr %m_kind.i.i.i.i.i, align 4
  %cmp2.i.i.i.i.i = icmp eq i32 %6, 11
  %7 = select i1 %cmp.i.i.i.i.i, i1 %cmp2.i.i.i.i.i, i1 false
  br i1 %7, label %if.then.i, label %_ZNK3smt17theory_array_base11is_set_cardEPK3app.exit.i

if.then.i:                                        ; preds = %_ZNK3smt17theory_array_base15is_set_has_sizeEPK3app.exit.i
  tail call void @_ZN3smt17theory_array_bapa3imp16internalize_sizeEP3app(ptr noundef nonnull align 8 dereferenceable(268) %0, ptr noundef nonnull %term)
  br label %_ZN3smt17theory_array_bapa3imp16internalize_termEP3app.exit

_ZNK3smt17theory_array_base11is_set_cardEPK3app.exit.i: ; preds = %_ZNK3smt17theory_array_base15is_set_has_sizeEPK3app.exit.i
  %cmp2.i.i.i.i11.i = icmp eq i32 %6, 12
  %8 = select i1 %cmp.i.i.i.i.i, i1 %cmp2.i.i.i.i11.i, i1 false
  br i1 %8, label %if.then4.i, label %_ZN3smt17theory_array_bapa3imp16internalize_termEP3app.exit

if.then4.i:                                       ; preds = %_ZNK3smt17theory_array_base11is_set_cardEPK3app.exit.i
  tail call void @_ZN3smt17theory_array_bapa3imp16internalize_cardEP3app(ptr noundef nonnull align 8 dereferenceable(268) %0, ptr noundef nonnull %term)
  br label %_ZN3smt17theory_array_bapa3imp16internalize_termEP3app.exit

_ZN3smt17theory_array_bapa3imp16internalize_termEP3app.exit: ; preds = %entry, %if.then.i, %_ZNK3smt17theory_array_base11is_set_cardEPK3app.exit.i, %if.then4.i
  ret void
}